target datalayout = "e-m:e-p270:32:32-p271:32:32-p272:64:64-i64:64-i128:128-f80:128-n8:16:32:64-S128"
target triple = "x86_64-pc-linux-gnu"

%struct.RelationData = type { %struct.RelFileLocator, ptr, i32, i32, i8, i8, i8, i8, i8, i32, i32, i32, i32, ptr, ptr, i32, %struct.LockInfoData, ptr, ptr, ptr, ptr, ptr, i8, ptr, ptr, ptr, ptr, ptr, ptr, i32, ptr, i8, ptr, ptr, i32, i8, i32, ptr, i8, ptr, ptr, ptr, ptr, ptr, ptr, ptr, i32, ptr, ptr, ptr, ptr, ptr, ptr, ptr, ptr, ptr, ptr, ptr, ptr, ptr, ptr, ptr, ptr, ptr, ptr, ptr, i32, i8, ptr }
%struct.RelFileLocator = type { i32, i32, i32 }
%struct.LockInfoData = type { %struct.LockRelId }
%struct.LockRelId = type { i32, i32 }
%struct.IndexInfo = type { i32, i32, i32, [32 x i16], ptr, ptr, ptr, ptr, ptr, ptr, ptr, ptr, ptr, ptr, i8, i8, i8, i8, i8, i8, i8, i8, i8, i32, i32, ptr, ptr }
%struct.BrinBuildState = type { ptr, double, double, i32, i32, i32, i32, ptr, ptr, ptr, ptr, i64, ptr, ptr, i32, ptr }
%struct.SortCoordinateData = type { i8, i32, ptr }
%struct.BrinMemTuple = type { i8, i8, i32, ptr, ptr, ptr, ptr, [0 x %struct.BrinValues] }
%struct.BrinValues = type { i16, i8, i8, ptr, i64, ptr, ptr }
%struct.BrinShared = type { i32, i32, i8, i32, i32, i64, %struct.ConditionVariable, i8, i32, double, double }
%struct.ConditionVariable = type { i8, %struct.proclist_head }
%struct.proclist_head = type { i32, i32 }
%struct.TableAmRoutine = type { i32, ptr, ptr, ptr, ptr, ptr, ptr, ptr, ptr, ptr, ptr, ptr, ptr, ptr, ptr, ptr, ptr, ptr, ptr, ptr, ptr, ptr, ptr, ptr, ptr, ptr, ptr, ptr, ptr, ptr, ptr, ptr, ptr, ptr, ptr, ptr, ptr, ptr, ptr, ptr, ptr, ptr, ptr, ptr, ptr, ptr }

@.str.1 = private unnamed_addr constant [7 x i8] c"brin.c\00", align 1
@__func__._brin_parallel_scan_and_build = private unnamed_addr constant [30 x i8] c"_brin_parallel_scan_and_build\00", align 1

; Function Attrs: inlinehint nounwind uwtable
define internal i32 @tas(ptr noundef %0) #2 {
  %2 = alloca ptr, align 8
  %3 = alloca i8, align 1
  store ptr %0, ptr %2, align 8
  call void @llvm.lifetime.start.p0(i64 1, ptr %3) #9
  store i8 1, ptr %3, align 1
  %4 = load i8, ptr %3, align 1
  %5 = load ptr, ptr %2, align 8
  %6 = call i8 asm sideeffect "\09lock\09\09\09\0A\09xchgb\09$0,$1\09\0A", "=q,=*m,0,*m,~{memory},~{cc},~{dirflag},~{fpsr},~{flags}"(ptr elementtype(i8) %5, i8 %4, ptr elementtype(i8) %5) #9, !srcloc !32
  store i8 %6, ptr %3, align 1
  %7 = load i8, ptr %3, align 1
  %8 = zext i8 %7 to i32
  call void @llvm.lifetime.end.p0(i64 1, ptr %3) #9
  ret i32 %8
}

; Function Attrs: nounwind uwtable
define internal void @form_and_spill_tuple(ptr noundef %0) #0 {
  %2 = alloca ptr, align 8
  %3 = alloca ptr, align 8
  %4 = alloca i64, align 8
  %5 = alloca i32, align 4
  store ptr %0, ptr %2, align 8
  call void @llvm.lifetime.start.p0(i64 8, ptr %3) #9
  call void @llvm.lifetime.start.p0(i64 8, ptr %4) #9
  %6 = load ptr, ptr %2, align 8
  %7 = getelementptr inbounds nuw %struct.BrinBuildState, ptr %6, i32 0, i32 9
  %8 = load ptr, ptr %7, align 8
  %9 = getelementptr inbounds nuw %struct.BrinMemTuple, ptr %8, i32 0, i32 1
  %10 = load i8, ptr %9, align 1, !range !4, !noundef !5
  %11 = trunc i8 %10 to i1
  br i1 %11, label %12, label %13

12:                                               ; preds = %1
  store i32 1, ptr %5, align 4
  br label %34

13:                                               ; preds = %1
  %14 = load ptr, ptr %2, align 8
  %15 = getelementptr inbounds nuw %struct.BrinBuildState, ptr %14, i32 0, i32 8
  %16 = load ptr, ptr %15, align 8
  %17 = load ptr, ptr %2, align 8
  %18 = getelementptr inbounds nuw %struct.BrinBuildState, ptr %17, i32 0, i32 5
  %19 = load i32, ptr %18, align 8
  %20 = load ptr, ptr %2, align 8
  %21 = getelementptr inbounds nuw %struct.BrinBuildState, ptr %20, i32 0, i32 9
  %22 = load ptr, ptr %21, align 8
  %23 = call ptr @brin_form_tuple(ptr noundef %16, i32 noundef %19, ptr noundef %22, ptr noundef %4)
  store ptr %23, ptr %3, align 8
  %24 = load ptr, ptr %2, align 8
  %25 = getelementptr inbounds nuw %struct.BrinBuildState, ptr %24, i32 0, i32 15
  %26 = load ptr, ptr %25, align 8
  %27 = load ptr, ptr %3, align 8
  %28 = load i64, ptr %4, align 8
  call void @tuplesort_putbrintuple(ptr noundef %26, ptr noundef %27, i64 noundef %28)
  %29 = load ptr, ptr %2, align 8
  %30 = getelementptr inbounds nuw %struct.BrinBuildState, ptr %29, i32 0, i32 1
  %31 = load double, ptr %30, align 8
  %32 = fadd double %31, 1.000000e+00
  store double %32, ptr %30, align 8
  %33 = load ptr, ptr %3, align 8
  call void @pfree(ptr noundef %33)
  store i32 0, ptr %5, align 4
  br label %34

34:                                               ; preds = %13, %12
  call void @llvm.lifetime.end.p0(i64 8, ptr %4) #9
  call void @llvm.lifetime.end.p0(i64 8, ptr %3) #9
  %35 = load i32, ptr %5, align 4
  switch i32 %35, label %37 [
    i32 0, label %36
    i32 1, label %36
  ]

36:                                               ; preds = %34, %34
  ret void

37:                                               ; preds = %34
  unreachable
}

; Function Attrs: inlinehint nounwind uwtable
define internal double @table_index_build_scan(ptr noundef %0, ptr noundef %1, ptr noundef %2, i1 noundef zeroext %3, i1 noundef zeroext %4, ptr noundef %5, ptr noundef %6, ptr noundef %7) #2 {
  %9 = alloca ptr, align 8
  %10 = alloca ptr, align 8
  %11 = alloca ptr, align 8
  %12 = alloca i8, align 1
  %13 = alloca i8, align 1
  %14 = alloca ptr, align 8
  %15 = alloca ptr, align 8
  %16 = alloca ptr, align 8
  store ptr %0, ptr %9, align 8
  store ptr %1, ptr %10, align 8
  store ptr %2, ptr %11, align 8
  %17 = zext i1 %3 to i8
  store i8 %17, ptr %12, align 1
  %18 = zext i1 %4 to i8
  store i8 %18, ptr %13, align 1
  store ptr %5, ptr %14, align 8
  store ptr %6, ptr %15, align 8
  store ptr %7, ptr %16, align 8
  %19 = load ptr, ptr %9, align 8
  %20 = getelementptr inbounds nuw %struct.RelationData, ptr %19, i32 0, i32 47
  %21 = load ptr, ptr %20, align 8
  %22 = getelementptr inbounds nuw %struct.TableAmRoutine, ptr %21, i32 0, i32 35
  %23 = load ptr, ptr %22, align 8
  %24 = load ptr, ptr %9, align 8
  %25 = load ptr, ptr %10, align 8
  %26 = load ptr, ptr %11, align 8
  %27 = load i8, ptr %12, align 1, !range !4, !noundef !5
  %28 = trunc i8 %27 to i1
  %29 = load i8, ptr %13, align 1, !range !4, !noundef !5
  %30 = trunc i8 %29 to i1
  %31 = load ptr, ptr %14, align 8
  %32 = load ptr, ptr %15, align 8
  %33 = load ptr, ptr %16, align 8
  %34 = call double %23(ptr noundef %24, ptr noundef %25, ptr noundef %26, i1 noundef zeroext %28, i1 noundef zeroext false, i1 noundef zeroext %30, i32 noundef 0, i32 noundef -1, ptr noundef %31, ptr noundef %32, ptr noundef %33)
  ret double %34
}

; Function Attrs: nounwind uwtable
define internal void @_brin_parallel_scan_and_build(ptr noundef %0, ptr noundef %1, ptr noundef %2, ptr noundef %3, ptr noundef %4, i32 noundef %5, i1 noundef zeroext %6) #0 {
  %8 = alloca ptr, align 8
  %9 = alloca ptr, align 8
  %10 = alloca ptr, align 8
  %11 = alloca ptr, align 8
  %12 = alloca ptr, align 8
  %13 = alloca i32, align 4
  %14 = alloca i8, align 1
  %15 = alloca ptr, align 8
  %16 = alloca ptr, align 8
  %17 = alloca double, align 8
  %18 = alloca ptr, align 8
  store ptr %0, ptr %8, align 8
  store ptr %1, ptr %9, align 8
  store ptr %2, ptr %10, align 8
  store ptr %3, ptr %11, align 8
  store ptr %4, ptr %12, align 8
  store i32 %5, ptr %13, align 4
  %19 = zext i1 %6 to i8
  store i8 %19, ptr %14, align 1
  call void @llvm.lifetime.start.p0(i64 8, ptr %15) #9
  call void @llvm.lifetime.start.p0(i64 8, ptr %16) #9
  call void @llvm.lifetime.start.p0(i64 8, ptr %17) #9
  call void @llvm.lifetime.start.p0(i64 8, ptr %18) #9
  %20 = call ptr @palloc0(i64 noundef 16)
  store ptr %20, ptr %15, align 8
  %21 = load ptr, ptr %15, align 8
  %22 = getelementptr inbounds nuw %struct.SortCoordinateData, ptr %21, i32 0, i32 0
  store i8 1, ptr %22, align 8
  %23 = load ptr, ptr %15, align 8
  %24 = getelementptr inbounds nuw %struct.SortCoordinateData, ptr %23, i32 0, i32 1
  store i32 -1, ptr %24, align 4
  %25 = load ptr, ptr %10, align 8
  %26 = load ptr, ptr %15, align 8
  %27 = getelementptr inbounds nuw %struct.SortCoordinateData, ptr %26, i32 0, i32 2
  store ptr %25, ptr %27, align 8
  %28 = load i32, ptr %13, align 4
  %29 = load ptr, ptr %15, align 8
  %30 = call ptr @tuplesort_begin_index_brin(i32 noundef %28, ptr noundef %29, i32 noundef 0)
  %31 = load ptr, ptr %8, align 8
  %32 = getelementptr inbounds nuw %struct.BrinBuildState, ptr %31, i32 0, i32 15
  store ptr %30, ptr %32, align 8
  %33 = load ptr, ptr %12, align 8
  %34 = call ptr @BuildIndexInfo(ptr noundef %33)
  store ptr %34, ptr %18, align 8
  %35 = load ptr, ptr %9, align 8
  %36 = getelementptr inbounds nuw %struct.BrinShared, ptr %35, i32 0, i32 2
  %37 = load i8, ptr %36, align 8, !range !4, !noundef !5
  %38 = trunc i8 %37 to i1
  %39 = load ptr, ptr %18, align 8
  %40 = getelementptr inbounds nuw %struct.IndexInfo, ptr %39, i32 0, i32 19
  %41 = zext i1 %38 to i8
  store i8 %41, ptr %40, align 1
  %42 = load ptr, ptr %11, align 8
  %43 = load ptr, ptr %9, align 8
  %44 = getelementptr inbounds nuw i8, ptr %43, i64 96
  %45 = call ptr @table_beginscan_parallel(ptr noundef %42, ptr noundef %44)
  store ptr %45, ptr %16, align 8
  %46 = load ptr, ptr %11, align 8
  %47 = load ptr, ptr %12, align 8
  %48 = load ptr, ptr %18, align 8
  %49 = load ptr, ptr %8, align 8
  %50 = load ptr, ptr %16, align 8
  %51 = call double @table_index_build_scan(ptr noundef %46, ptr noundef %47, ptr noundef %48, i1 noundef zeroext true, i1 noundef zeroext true, ptr noundef @brinbuildCallbackParallel, ptr noundef %49, ptr noundef %50)
  store double %51, ptr %17, align 8
  %52 = load ptr, ptr %8, align 8
  call void @form_and_spill_tuple(ptr noundef %52)
  %53 = load ptr, ptr %8, align 8
  %54 = getelementptr inbounds nuw %struct.BrinBuildState, ptr %53, i32 0, i32 15
  %55 = load ptr, ptr %54, align 8
  call void @tuplesort_performsort(ptr noundef %55)
  %56 = load double, ptr %17, align 8
  %57 = load ptr, ptr %8, align 8
  %58 = getelementptr inbounds nuw %struct.BrinBuildState, ptr %57, i32 0, i32 2
  %59 = load double, ptr %58, align 8
  %60 = fadd double %59, %56
  store double %60, ptr %58, align 8
  %61 = load ptr, ptr %9, align 8
  %62 = getelementptr inbounds nuw %struct.BrinShared, ptr %61, i32 0, i32 7
  %63 = call i32 @tas(ptr noundef %62)
  %64 = icmp ne i32 %63, 0
  br i1 %64, label %65, label %69

65:                                               ; preds = %7
  %66 = load ptr, ptr %9, align 8
  %67 = getelementptr inbounds nuw %struct.BrinShared, ptr %66, i32 0, i32 7
  %68 = call i32 @s_lock(ptr noundef %67, ptr noundef @.str.1, i32 noundef 2841, ptr noundef @__func__._brin_parallel_scan_and_build)
  br label %70

69:                                               ; preds = %7
  br label %70

70:                                               ; preds = %69, %65
  %71 = load ptr, ptr %9, align 8
  %72 = getelementptr inbounds nuw %struct.BrinShared, ptr %71, i32 0, i32 8
  %73 = load i32, ptr %72, align 8
  %74 = add i32 %73, 1
  store i32 %74, ptr %72, align 8
  %75 = load ptr, ptr %8, align 8
  %76 = getelementptr inbounds nuw %struct.BrinBuildState, ptr %75, i32 0, i32 2
  %77 = load double, ptr %76, align 8
  %78 = load ptr, ptr %9, align 8
  %79 = getelementptr inbounds nuw %struct.BrinShared, ptr %78, i32 0, i32 9
  %80 = load double, ptr %79, align 8
  %81 = fadd double %80, %77
  store double %81, ptr %79, align 8
  %82 = load ptr, ptr %8, align 8
  %83 = getelementptr inbounds nuw %struct.BrinBuildState, ptr %82, i32 0, i32 1
  %84 = load double, ptr %83, align 8
  %85 = load ptr, ptr %9, align 8
  %86 = getelementptr inbounds nuw %struct.BrinShared, ptr %85, i32 0, i32 10
  %87 = load double, ptr %86, align 8
  %88 = fadd double %87, %84
  store double %88, ptr %86, align 8
  br label %89

89:                                               ; preds = %70
  call void asm sideeffect "", "~{memory},~{dirflag},~{fpsr},~{flags}"() #9, !srcloc !25
  %90 = load ptr, ptr %9, align 8
  %91 = getelementptr inbounds nuw %struct.BrinShared, ptr %90, i32 0, i32 7
  store i8 0, ptr %91, align 4
  br label %92

92:                                               ; preds = %89
  br label %93

93:                                               ; preds = %92
  %94 = load ptr, ptr %9, align 8
  %95 = getelementptr inbounds nuw %struct.BrinShared, ptr %94, i32 0, i32 6
  call void @ConditionVariableSignal(ptr noundef %95)
  %96 = load ptr, ptr %8, align 8
  %97 = getelementptr inbounds nuw %struct.BrinBuildState, ptr %96, i32 0, i32 15
  %98 = load ptr, ptr %97, align 8
  call void @tuplesort_end(ptr noundef %98)
  call void @llvm.lifetime.end.p0(i64 8, ptr %18) #9
  call void @llvm.lifetime.end.p0(i64 8, ptr %17) #9
  call void @llvm.lifetime.end.p0(i64 8, ptr %16) #9
  call void @llvm.lifetime.end.p0(i64 8, ptr %15) #9
  ret void
}