; Function Attrs: nounwind uwtable
define internal fastcc void @_brin_parallel_scan_and_build(ptr noundef initializes((104, 112)) %0, ptr noundef %1, ptr noundef %2, ptr noundef %3, ptr noundef %4, i32 noundef %5) unnamed_addr #0 {
  %7 = alloca i64, align 8
  %8 = tail call ptr @palloc0(i64 noundef 16) #10
  store i8 1, ptr %8, align 8
  %9 = getelementptr inbounds nuw i8, ptr %8, i64 4
  store i32 -1, ptr %9, align 4
  %10 = getelementptr inbounds nuw i8, ptr %8, i64 8
  store ptr %2, ptr %10, align 8
  %11 = tail call ptr @tuplesort_begin_index_brin(i32 noundef %5, ptr noundef nonnull %8, i32 noundef 0) #10
  %12 = getelementptr inbounds nuw i8, ptr %0, i64 104
  store ptr %11, ptr %12, align 8
  %13 = tail call ptr @BuildIndexInfo(ptr noundef %4) #10
  %14 = getelementptr inbounds nuw i8, ptr %1, i64 8
  %15 = load i8, ptr %14, align 8, !range !4, !noundef !5
  %16 = getelementptr inbounds nuw i8, ptr %13, i64 165
  store i8 %15, ptr %16, align 1
  %17 = getelementptr inbounds nuw i8, ptr %1, i64 96
  %18 = tail call ptr @table_beginscan_parallel(ptr noundef %3, ptr noundef nonnull %17) #10
  %19 = getelementptr inbounds nuw i8, ptr %3, i64 320
  %20 = load ptr, ptr %19, align 8
  %21 = getelementptr inbounds nuw i8, ptr %20, i64 280
  %22 = load ptr, ptr %21, align 8
  %23 = tail call double %22(ptr noundef %3, ptr noundef %4, ptr noundef %13, i1 noundef zeroext true, i1 noundef zeroext false, i1 noundef zeroext true, i32 noundef 0, i32 noundef -1, ptr noundef nonnull @brinbuildCallbackParallel, ptr noundef %0, ptr noundef %18) #10
  call void @llvm.lifetime.start.p0(i64 8, ptr nonnull %7) #10
  %24 = getelementptr inbounds nuw i8, ptr %0, i64 56
  %25 = load ptr, ptr %24, align 8
  %26 = getelementptr inbounds nuw i8, ptr %25, i64 1
  %27 = load i8, ptr %26, align 1, !range !4, !noundef !5
  %28 = trunc nuw i8 %27 to i1
  br i1 %28, label %form_and_spill_tuple.exit, label %29

29:                                               ; preds = %6
  %30 = getelementptr inbounds nuw i8, ptr %0, i64 48
  %31 = load ptr, ptr %30, align 8
  %32 = getelementptr inbounds nuw i8, ptr %0, i64 32
  %33 = load i32, ptr %32, align 8
  %34 = call ptr @brin_form_tuple(ptr noundef %31, i32 noundef %33, ptr noundef nonnull %25, ptr noundef nonnull %7) #10
  %35 = load ptr, ptr %12, align 8
  %36 = load i64, ptr %7, align 8
  call void @tuplesort_putbrintuple(ptr noundef %35, ptr noundef %34, i64 noundef %36) #10
  %37 = getelementptr inbounds nuw i8, ptr %0, i64 8
  %38 = load double, ptr %37, align 8
  %39 = fadd double %38, 1.000000e+00
  store double %39, ptr %37, align 8
  call void @pfree(ptr noundef %34) #10
  br label %form_and_spill_tuple.exit

form_and_spill_tuple.exit:                        ; preds = %6, %29
  call void @llvm.lifetime.end.p0(i64 8, ptr nonnull %7) #10
  %40 = load ptr, ptr %12, align 8
  call void @tuplesort_performsort(ptr noundef %40) #10
  %41 = getelementptr inbounds nuw i8, ptr %0, i64 16
  %42 = load double, ptr %41, align 8
  %43 = fadd double %23, %42
  store double %43, ptr %41, align 8
  %44 = getelementptr inbounds nuw i8, ptr %1, i64 44
  %45 = call i8 asm sideeffect "\09lock\09\09\09\0A\09xchgb\09$0,$1\09\0A", "=q,=*m,0,*m,~{memory},~{cc},~{dirflag},~{fpsr},~{flags}"(ptr nonnull elementtype(i8) %44, i8 1, ptr nonnull elementtype(i8) %44) #10, !srcloc !7
  %.not = icmp eq i8 %45, 0
  br i1 %.not, label %48, label %46

46:                                               ; preds = %form_and_spill_tuple.exit
  %47 = call i32 @s_lock(ptr noundef nonnull %44, ptr noundef nonnull @.str.1, i32 noundef 2841, ptr noundef nonnull @__func__._brin_parallel_scan_and_build) #10
  br label %48

48:                                               ; preds = %form_and_spill_tuple.exit, %46
  %49 = getelementptr inbounds nuw i8, ptr %1, i64 48
  %50 = load i32, ptr %49, align 8
  %51 = add i32 %50, 1
  store i32 %51, ptr %49, align 8
  %52 = load double, ptr %41, align 8
  %53 = getelementptr inbounds nuw i8, ptr %1, i64 56
  %54 = load double, ptr %53, align 8
  %55 = fadd double %52, %54
  store double %55, ptr %53, align 8
  %56 = getelementptr inbounds nuw i8, ptr %0, i64 8
  %57 = load double, ptr %56, align 8
  %58 = getelementptr inbounds nuw i8, ptr %1, i64 64
  %59 = load double, ptr %58, align 8
  %60 = fadd double %57, %59
  store double %60, ptr %58, align 8
  call void asm sideeffect "", "~{memory},~{dirflag},~{fpsr},~{flags}"() #10, !srcloc !30
  store i8 0, ptr %44, align 4
  %61 = getelementptr inbounds nuw i8, ptr %1, i64 32
  call void @ConditionVariableSignal(ptr noundef nonnull %61) #10
  %62 = load ptr, ptr %12, align 8
  call void @tuplesort_end(ptr noundef %62) #10
  ret void
}